target datalayout = "e-m:e-p270:32:32-p271:32:32-p272:64:64-i64:64-i128:128-f80:128-n8:16:32:64-S128"
target triple = "x86_64-pc-linux-gnu"

%class.GPUShader = type <{ %"class.std::__cxx11::basic_string", i32, i32, i8, i8, [6 x i8] }>
%"class.std::__cxx11::basic_string" = type { %"struct.std::__cxx11::basic_string<char>::_Alloc_hider", i64, %union.anon }
%"struct.std::__cxx11::basic_string<char>::_Alloc_hider" = type { ptr }
%union.anon = type { i64, [8 x i8] }

@__glewGetObjectParameterivARB = external global ptr, align 8
@__glewGetInfoLogARB = external global ptr, align 8
@.str.2 = private unnamed_addr constant [17 x i8] c"InfoLog ---> %s\0A\00", align 1
@.str.3 = private unnamed_addr constant [3 x i8] c"%s\00", align 1

; Function Attrs: mustprogress uwtable
define void @_ZN9GPUShader12printInfoLogEv(ptr noundef nonnull align 8 dereferenceable(42) %0) #4 align 2 {
  %2 = alloca ptr, align 8
  %3 = alloca i32, align 4
  %4 = alloca i32, align 4
  %5 = alloca ptr, align 8
  store ptr %0, ptr %2, align 8
  %6 = load ptr, ptr %2, align 8
  store i32 0, ptr %3, align 4
  store i32 0, ptr %4, align 4
  %7 = load ptr, ptr @__glewGetObjectParameterivARB, align 8
  %8 = getelementptr inbounds %class.GPUShader, ptr %6, i32 0, i32 2
  %9 = load i32, ptr %8, align 4
  call void %7(i32 noundef %9, i32 noundef 35716, ptr noundef %3)
  %10 = load i32, ptr %3, align 4
  %11 = icmp sgt i32 %10, 0
  br i1 %11, label %12, label %34

12:                                               ; preds = %1
  %13 = load i32, ptr %3, align 4
  %14 = sext i32 %13 to i64
  %15 = call noalias ptr @malloc(i64 noundef %14) #11
  store ptr %15, ptr %5, align 8
  %16 = load ptr, ptr @__glewGetInfoLogARB, align 8
  %17 = getelementptr inbounds %class.GPUShader, ptr %6, i32 0, i32 2
  %18 = load i32, ptr %17, align 4
  %19 = load i32, ptr %3, align 4
  %20 = load ptr, ptr %5, align 8
  call void %16(i32 noundef %18, i32 noundef %19, ptr noundef %4, ptr noundef %20)
  %21 = load ptr, ptr %5, align 8
  %22 = getelementptr inbounds i8, ptr %21, i64 0
  %23 = load i8, ptr %22, align 1
  %24 = sext i8 %23 to i32
  %25 = icmp ne i32 %24, 0
  br i1 %25, label %26, label %32

26:                                               ; preds = %12
  %27 = getelementptr inbounds %class.GPUShader, ptr %6, i32 0, i32 0
  %28 = call noundef ptr @_ZNKSt7__cxx1112basic_stringIcSt11char_traitsIcESaIcEE5c_strEv(ptr noundef nonnull align 8 dereferenceable(32) %27) #3
  %29 = call i32 (ptr, ...) @printf(ptr noundef @.str.2, ptr noundef %28)
  %30 = load ptr, ptr %5, align 8
  %31 = call i32 (ptr, ...) @printf(ptr noundef @.str.3, ptr noundef %30)
  br label %32

32:                                               ; preds = %26, %12
  %33 = load ptr, ptr %5, align 8
  call void @free(ptr noundef %33) #3
  br label %34

34:                                               ; preds = %32, %1
  ret void
}