; Function Attrs: mustprogress uwtable
define void @_ZN9GPUShader12printInfoLogEv(ptr noundef nonnull align 8 dereferenceable(42) %0) local_unnamed_addr #3 align 2 {
  %2 = alloca i32, align 4
  %3 = alloca i32, align 4
  store i32 0, ptr %2, align 4
  store i32 0, ptr %3, align 4
  %4 = load ptr, ptr @__glewGetObjectParameterivARB, align 8
  %5 = getelementptr inbounds nuw i8, ptr %0, i64 36
  %6 = load i32, ptr %5, align 4
  call void %4(i32 noundef %6, i32 noundef 35716, ptr noundef nonnull %2)
  %7 = load i32, ptr %2, align 4
  %8 = icmp sgt i32 %7, 0
  br i1 %8, label %9, label %20

9:                                                ; preds = %1
  %10 = zext nneg i32 %7 to i64
  %11 = call noalias ptr @malloc(i64 noundef %10) #16
  %12 = load ptr, ptr @__glewGetInfoLogARB, align 8
  %13 = load i32, ptr %5, align 4
  call void %12(i32 noundef %13, i32 noundef %7, ptr noundef nonnull %3, ptr noundef %11)
  %14 = load i8, ptr %11, align 1
  %.not = icmp eq i8 %14, 0
  br i1 %.not, label %19, label %15

15:                                               ; preds = %9
  %16 = call noundef ptr @_ZNKSt7__cxx1112basic_stringIcSt11char_traitsIcESaIcEE5c_strEv(ptr noundef nonnull align 8 dereferenceable(32) %0) #13
  %17 = call i32 (ptr, ...) @printf(ptr noundef nonnull dereferenceable(1) @.str.2, ptr noundef %16)
  %18 = call i32 (ptr, ...) @printf(ptr noundef nonnull dereferenceable(1) @.str.3, ptr noundef nonnull %11)
  br label %19

19:                                               ; preds = %15, %9
  call void @free(ptr noundef nonnull %11) #13
  br label %20

20:                                               ; preds = %19, %1
  ret void
}